target datalayout = "e-m:e-p270:32:32-p271:32:32-p272:64:64-i64:64-i128:128-f80:128-n8:16:32:64-S128"
target triple = "x86_64-pc-linux-gnu"

; Function Attrs: mustprogress nounwind uwtable
define noundef i32 @_ZN2cv17getOptimalDFTSizeEi(i32 noundef %0) #3 {
  %2 = alloca i32, align 4
  %3 = alloca i32, align 4
  %4 = alloca i32, align 4
  %5 = alloca i32, align 4
  %6 = alloca i32, align 4
  %7 = alloca i32, align 4
  store i32 %0, ptr %3, align 4, !tbaa !3
  call void @llvm.lifetime.start.p0(i64 4, ptr %4) #19
  store i32 0, ptr %4, align 4, !tbaa !3
  call void @llvm.lifetime.start.p0(i64 4, ptr %5) #19
  store i32 1650, ptr %5, align 4, !tbaa !3
  %8 = load i32, ptr %3, align 4, !tbaa !3
  %9 = load i32, ptr %5, align 4, !tbaa !3
  %10 = sext i32 %9 to i64
  %11 = getelementptr inbounds [1651 x i32], ptr @_ZN2cvL17optimalDFTSizeTabE, i64 0, i64 %10
  %12 = load i32, ptr %11, align 4, !tbaa !3
  %13 = icmp uge i32 %8, %12
  br i1 %13, label %14, label %15

14:                                               ; preds = %1
  store i32 -1, ptr %2, align 4
  store i32 1, ptr %6, align 4
  br label %42

15:                                               ; preds = %1
  br label %16

16:                                               ; preds = %36, %15
  %17 = load i32, ptr %4, align 4, !tbaa !3
  %18 = load i32, ptr %5, align 4, !tbaa !3
  %19 = icmp slt i32 %17, %18
  br i1 %19, label %20, label %37

20:                                               ; preds = %16
  call void @llvm.lifetime.start.p0(i64 4, ptr %7) #19
  %21 = load i32, ptr %4, align 4, !tbaa !3
  %22 = load i32, ptr %5, align 4, !tbaa !3
  %23 = add nsw i32 %21, %22
  %24 = ashr i32 %23, 1
  store i32 %24, ptr %7, align 4, !tbaa !3
  %25 = load i32, ptr %3, align 4, !tbaa !3
  %26 = load i32, ptr %7, align 4, !tbaa !3
  %27 = sext i32 %26 to i64
  %28 = getelementptr inbounds [1651 x i32], ptr @_ZN2cvL17optimalDFTSizeTabE, i64 0, i64 %27
  %29 = load i32, ptr %28, align 4, !tbaa !3
  %30 = icmp sle i32 %25, %29
  br i1 %30, label %31, label %33

31:                                               ; preds = %20
  %32 = load i32, ptr %7, align 4, !tbaa !3
  store i32 %32, ptr %5, align 4, !tbaa !3
  br label %36

33:                                               ; preds = %20
  %34 = load i32, ptr %7, align 4, !tbaa !3
  %35 = add nsw i32 %34, 1
  store i32 %35, ptr %4, align 4, !tbaa !3
  br label %36

36:                                               ; preds = %33, %31
  call void @llvm.lifetime.end.p0(i64 4, ptr %7) #19
  br label %16, !llvm.loop !164

37:                                               ; preds = %16
  %38 = load i32, ptr %5, align 4, !tbaa !3
  %39 = sext i32 %38 to i64
  %40 = getelementptr inbounds [1651 x i32], ptr @_ZN2cvL17optimalDFTSizeTabE, i64 0, i64 %39
  %41 = load i32, ptr %40, align 4, !tbaa !3
  store i32 %41, ptr %2, align 4
  store i32 1, ptr %6, align 4
  br label %42

42:                                               ; preds = %37, %14
  call void @llvm.lifetime.end.p0(i64 4, ptr %5) #19
  call void @llvm.lifetime.end.p0(i64 4, ptr %4) #19
  %43 = load i32, ptr %2, align 4
  ret i32 %43
}

; Function Attrs: mustprogress nounwind uwtable
define i32 @cvGetOptimalDFTSize(i32 noundef %0) #3 {
  %2 = alloca i32, align 4
  store i32 %0, ptr %2, align 4, !tbaa !3
  %3 = load i32, ptr %2, align 4, !tbaa !3
  %4 = call noundef i32 @_ZN2cv17getOptimalDFTSizeEi(i32 noundef %3)
  ret i32 %4
}