; Function Attrs: mustprogress nofree norecurse nosync nounwind willreturn memory(none) uwtable
define i32 @cvGetOptimalDFTSize(i32 noundef %0) local_unnamed_addr #10 {
  %2 = icmp ugt i32 %0, 2125763999
  br i1 %2, label %_ZN2cv17getOptimalDFTSizeEi.exit, label %.preheader.i

.preheader.i:                                     ; preds = %1, %.preheader.i
  %.01216.i = phi i32 [ %.1.i, %.preheader.i ], [ 1650, %1 ]
  %.01315.i = phi i32 [ %.114.i, %.preheader.i ], [ 0, %1 ]
  %3 = add nsw i32 %.01315.i, %.01216.i
  %4 = ashr i32 %3, 1
  %5 = sext i32 %4 to i64
  %6 = getelementptr inbounds [1651 x i32], ptr @_ZN2cvL17optimalDFTSizeTabE, i64 0, i64 %5
  %7 = load i32, ptr %6, align 4, !tbaa !46
  %.not.i = icmp sgt i32 %0, %7
  %8 = add nsw i32 %4, 1
  %.114.i = select i1 %.not.i, i32 %8, i32 %.01315.i
  %.1.i = select i1 %.not.i, i32 %.01216.i, i32 %4
  %9 = icmp slt i32 %.114.i, %.1.i
  br i1 %9, label %.preheader.i, label %10, !llvm.loop !189

10:                                               ; preds = %.preheader.i
  %11 = sext i32 %.1.i to i64
  %12 = getelementptr inbounds [1651 x i32], ptr @_ZN2cvL17optimalDFTSizeTabE, i64 0, i64 %11
  %13 = load i32, ptr %12, align 4, !tbaa !46
  br label %_ZN2cv17getOptimalDFTSizeEi.exit

_ZN2cv17getOptimalDFTSizeEi.exit:                 ; preds = %1, %10
  %.0.i = phi i32 [ %13, %10 ], [ -1, %1 ]
  ret i32 %.0.i
}